; Function Attrs: nounwind uwtable
define hidden noundef i32 @SHA1_Final(ptr noundef writeonly captures(none) initializes((0, 20)) %0, ptr noundef %1) local_unnamed_addr #2 {
  %3 = getelementptr inbounds nuw i8, ptr %1, i64 92
  %4 = load i32, ptr %3, align 4, !tbaa !13
  %5 = zext i32 %4 to i64
  %6 = getelementptr inbounds nuw i8, ptr %1, i64 28
  %7 = getelementptr inbounds nuw [64 x i8], ptr %6, i64 0, i64 %5
  store i8 -128, ptr %7, align 1, !tbaa !6
  %8 = add nuw nsw i64 %5, 1
  %9 = icmp ugt i32 %4, 55
  br i1 %9, label %10, label %13

10:                                               ; preds = %2
  %11 = getelementptr inbounds nuw i8, ptr %6, i64 %8
  %12 = sub nsw i64 63, %5
  tail call void @llvm.memset.p0.i64(ptr nonnull align 1 %11, i8 0, i64 %12, i1 false)
  tail call void @sha1_block_data_order(ptr noundef nonnull %1, ptr noundef nonnull %6, i64 noundef 1) #6
  br label %13

13:                                               ; preds = %10, %2
  %.0 = phi i64 [ 0, %10 ], [ %8, %2 ]
  %14 = getelementptr inbounds nuw i8, ptr %6, i64 %.0
  %15 = sub nuw nsw i64 56, %.0
  tail call void @llvm.memset.p0.i64(ptr nonnull align 1 %14, i8 0, i64 %15, i1 false)
  %16 = getelementptr inbounds nuw i8, ptr %1, i64 84
  %17 = getelementptr inbounds nuw i8, ptr %1, i64 24
  %18 = load i32, ptr %17, align 4, !tbaa !9
  %19 = lshr i32 %18, 24
  %20 = trunc nuw i32 %19 to i8
  %21 = getelementptr inbounds nuw i8, ptr %1, i64 85
  store i8 %20, ptr %16, align 1, !tbaa !6
  %22 = lshr i32 %18, 16
  %23 = trunc i32 %22 to i8
  %24 = getelementptr inbounds nuw i8, ptr %1, i64 86
  store i8 %23, ptr %21, align 1, !tbaa !6
  %25 = lshr i32 %18, 8
  %26 = trunc i32 %25 to i8
  %27 = getelementptr inbounds nuw i8, ptr %1, i64 87
  store i8 %26, ptr %24, align 1, !tbaa !6
  %28 = trunc i32 %18 to i8
  %29 = getelementptr inbounds nuw i8, ptr %1, i64 88
  store i8 %28, ptr %27, align 1, !tbaa !6
  %30 = getelementptr inbounds nuw i8, ptr %1, i64 20
  %31 = load i32, ptr %30, align 4, !tbaa !12
  %32 = lshr i32 %31, 24
  %33 = trunc nuw i32 %32 to i8
  %34 = getelementptr inbounds nuw i8, ptr %1, i64 89
  store i8 %33, ptr %29, align 1, !tbaa !6
  %35 = lshr i32 %31, 16
  %36 = trunc i32 %35 to i8
  %37 = getelementptr inbounds nuw i8, ptr %1, i64 90
  store i8 %36, ptr %34, align 1, !tbaa !6
  %38 = lshr i32 %31, 8
  %39 = trunc i32 %38 to i8
  %40 = getelementptr inbounds nuw i8, ptr %1, i64 91
  store i8 %39, ptr %37, align 1, !tbaa !6
  %41 = trunc i32 %31 to i8
  store i8 %41, ptr %40, align 1, !tbaa !6
  tail call void @sha1_block_data_order(ptr noundef nonnull %1, ptr noundef nonnull %6, i64 noundef 1) #6
  tail call void @llvm.memset.p0.i64(ptr noundef nonnull align 4 dereferenceable(68) %6, i8 0, i64 68, i1 false)
  %42 = load i32, ptr %1, align 4, !tbaa !6
  %43 = lshr i32 %42, 24
  %44 = trunc nuw i32 %43 to i8
  %45 = getelementptr inbounds nuw i8, ptr %0, i64 1
  store i8 %44, ptr %0, align 1, !tbaa !6
  %46 = lshr i32 %42, 16
  %47 = trunc i32 %46 to i8
  %48 = getelementptr inbounds nuw i8, ptr %0, i64 2
  store i8 %47, ptr %45, align 1, !tbaa !6
  %49 = lshr i32 %42, 8
  %50 = trunc i32 %49 to i8
  %51 = getelementptr inbounds nuw i8, ptr %0, i64 3
  store i8 %50, ptr %48, align 1, !tbaa !6
  %52 = trunc i32 %42 to i8
  %53 = getelementptr inbounds nuw i8, ptr %0, i64 4
  store i8 %52, ptr %51, align 1, !tbaa !6
  %54 = getelementptr inbounds nuw i8, ptr %1, i64 4
  %55 = load i32, ptr %54, align 4, !tbaa !6
  %56 = lshr i32 %55, 24
  %57 = trunc nuw i32 %56 to i8
  %58 = getelementptr inbounds nuw i8, ptr %0, i64 5
  store i8 %57, ptr %53, align 1, !tbaa !6
  %59 = lshr i32 %55, 16
  %60 = trunc i32 %59 to i8
  %61 = getelementptr inbounds nuw i8, ptr %0, i64 6
  store i8 %60, ptr %58, align 1, !tbaa !6
  %62 = lshr i32 %55, 8
  %63 = trunc i32 %62 to i8
  %64 = getelementptr inbounds nuw i8, ptr %0, i64 7
  store i8 %63, ptr %61, align 1, !tbaa !6
  %65 = trunc i32 %55 to i8
  %66 = getelementptr inbounds nuw i8, ptr %0, i64 8
  store i8 %65, ptr %64, align 1, !tbaa !6
  %67 = getelementptr inbounds nuw i8, ptr %1, i64 8
  %68 = load i32, ptr %67, align 4, !tbaa !6
  %69 = lshr i32 %68, 24
  %70 = trunc nuw i32 %69 to i8
  %71 = getelementptr inbounds nuw i8, ptr %0, i64 9
  store i8 %70, ptr %66, align 1, !tbaa !6
  %72 = lshr i32 %68, 16
  %73 = trunc i32 %72 to i8
  %74 = getelementptr inbounds nuw i8, ptr %0, i64 10
  store i8 %73, ptr %71, align 1, !tbaa !6
  %75 = lshr i32 %68, 8
  %76 = trunc i32 %75 to i8
  %77 = getelementptr inbounds nuw i8, ptr %0, i64 11
  store i8 %76, ptr %74, align 1, !tbaa !6
  %78 = trunc i32 %68 to i8
  %79 = getelementptr inbounds nuw i8, ptr %0, i64 12
  store i8 %78, ptr %77, align 1, !tbaa !6
  %80 = getelementptr inbounds nuw i8, ptr %1, i64 12
  %81 = load i32, ptr %80, align 4, !tbaa !6
  %82 = lshr i32 %81, 24
  %83 = trunc nuw i32 %82 to i8
  %84 = getelementptr inbounds nuw i8, ptr %0, i64 13
  store i8 %83, ptr %79, align 1, !tbaa !6
  %85 = lshr i32 %81, 16
  %86 = trunc i32 %85 to i8
  %87 = getelementptr inbounds nuw i8, ptr %0, i64 14
  store i8 %86, ptr %84, align 1, !tbaa !6
  %88 = lshr i32 %81, 8
  %89 = trunc i32 %88 to i8
  %90 = getelementptr inbounds nuw i8, ptr %0, i64 15
  store i8 %89, ptr %87, align 1, !tbaa !6
  %91 = trunc i32 %81 to i8
  %92 = getelementptr inbounds nuw i8, ptr %0, i64 16
  store i8 %91, ptr %90, align 1, !tbaa !6
  %93 = getelementptr inbounds nuw i8, ptr %1, i64 16
  %94 = load i32, ptr %93, align 4, !tbaa !6
  %95 = lshr i32 %94, 24
  %96 = trunc nuw i32 %95 to i8
  %97 = getelementptr inbounds nuw i8, ptr %0, i64 17
  store i8 %96, ptr %92, align 1, !tbaa !6
  %98 = lshr i32 %94, 16
  %99 = trunc i32 %98 to i8
  %100 = getelementptr inbounds nuw i8, ptr %0, i64 18
  store i8 %99, ptr %97, align 1, !tbaa !6
  %101 = lshr i32 %94, 8
  %102 = trunc i32 %101 to i8
  %103 = getelementptr inbounds nuw i8, ptr %0, i64 19
  store i8 %102, ptr %100, align 1, !tbaa !6
  %104 = trunc i32 %94 to i8
  store i8 %104, ptr %103, align 1, !tbaa !6
  ret i32 1
}